target datalayout = "e-m:e-p270:32:32-p271:32:32-p272:64:64-i64:64-i128:128-f80:128-n8:16:32:64-S128"
target triple = "x86_64-pc-linux-gnu"

%struct.AVCodecContext = type { ptr, i32, i32, ptr, i32, i32, ptr, ptr, ptr, i64, i32, i32, ptr, i32, %struct.AVRational, %struct.AVRational, %struct.AVRational, i32, i32, i32, i32, i32, %struct.AVRational, i32, i32, i32, i32, i32, i32, i32, i32, i32, i32, i32, ptr, ptr, i32, float, float, float, float, float, float, float, float, float, i32, i32, i32, i32, i32, i32, i32, i32, i32, i32, i32, i32, ptr, ptr, ptr, i32, i32, i32, i32, i32, i32, i32, i32, i32, i32, %struct.AVChannelLayout, i32, i32, i32, i32, i32, i32, i32, i32, ptr, i32, i32, i32, float, float, i32, i32, i32, i32, i32, ptr, i64, i64, float, float, i32, i32, ptr, ptr, i32, i32, i32, i32, i32, ptr, ptr, ptr, ptr, i32, i32, [8 x i64], i32, i32, i32, i32, i32, i32, i32, ptr, ptr, i32, i32, i32, i32, i32, i32, i32, i32, i32, i32, ptr, ptr, i32, i32, ptr, ptr, ptr, ptr, i32, i32, i64, i32, i32, i64, ptr, i64, ptr, i32, ptr, i32 }
%struct.AVRational = type { i32, i32 }
%struct.AVChannelLayout = type { i32, i32, %union.anon.0, ptr }
%union.anon.0 = type { i64 }
%struct.A64Context = type { ptr, %struct.AVLFG, i32, i32, i32, ptr, ptr, ptr, [5 x i32], ptr, ptr, i32, i64 }
%struct.AVLFG = type { [64 x i32], i32 }
%struct.AVCodec = type { ptr, ptr, i32, i32, i32, i8, ptr, ptr, ptr, ptr, ptr, ptr, ptr, ptr }

@.str.5 = private unnamed_addr constant [37 x i8] c"charset lifetime set to %d frame(s)\0A\00", align 1
@mc_colors = internal constant [5 x i8] c"\00\0B\0C\0F\01", align 1
@.str.6 = private unnamed_addr constant [35 x i8] c"Failed to allocate buffer memory.\0A\00", align 1
@.str.7 = private unnamed_addr constant [42 x i8] c"Failed to allocate memory for extradata.\0A\00", align 1
@.str.8 = private unnamed_addr constant [5 x i8] c"a64m\00", align 1

; Function Attrs: alwaysinline nounwind willreturn memory(none) uwtable
define internal i32 @av_bswap32(i32 noundef %0) #5 {
  %2 = alloca i32, align 4
  store i32 %0, ptr %2, align 4, !tbaa !45
  %3 = load i32, ptr %2, align 4, !tbaa !45
  %4 = shl i32 %3, 8
  %5 = and i32 %4, 65280
  %6 = load i32, ptr %2, align 4, !tbaa !45
  %7 = lshr i32 %6, 8
  %8 = and i32 %7, 255
  %9 = or i32 %5, %8
  %10 = shl i32 %9, 16
  %11 = load i32, ptr %2, align 4, !tbaa !45
  %12 = lshr i32 %11, 16
  %13 = shl i32 %12, 8
  %14 = and i32 %13, 65280
  %15 = load i32, ptr %2, align 4, !tbaa !45
  %16 = lshr i32 %15, 16
  %17 = lshr i32 %16, 8
  %18 = and i32 %17, 255
  %19 = or i32 %14, %18
  %20 = or i32 %10, %19
  ret i32 %20
}

; Function Attrs: cold nounwind optsize uwtable
define internal i32 @a64multi_encode_init(ptr noundef %0) #0 {
  %2 = alloca i32, align 4
  %3 = alloca ptr, align 8
  %4 = alloca ptr, align 8
  %5 = alloca i32, align 4
  %6 = alloca i32, align 4
  store ptr %0, ptr %3, align 8, !tbaa !4
  call void @llvm.lifetime.start.p0(i64 8, ptr %4) #7
  %7 = load ptr, ptr %3, align 8, !tbaa !4
  %8 = getelementptr inbounds nuw %struct.AVCodecContext, ptr %7, i32 0, i32 6
  %9 = load ptr, ptr %8, align 8, !tbaa !9
  store ptr %9, ptr %4, align 8, !tbaa !29
  call void @llvm.lifetime.start.p0(i64 4, ptr %5) #7
  %10 = load ptr, ptr %4, align 8, !tbaa !29
  %11 = getelementptr inbounds nuw %struct.A64Context, ptr %10, i32 0, i32 1
  call void @av_lfg_init(ptr noundef %11, i32 noundef 1)
  %12 = load ptr, ptr %3, align 8, !tbaa !4
  %13 = getelementptr inbounds nuw %struct.AVCodecContext, ptr %12, i32 0, i32 82
  %14 = load i32, ptr %13, align 4, !tbaa !31
  %15 = icmp slt i32 %14, 1
  br i1 %15, label %16, label %19

16:                                               ; preds = %1
  %17 = load ptr, ptr %4, align 8, !tbaa !29
  %18 = getelementptr inbounds nuw %struct.A64Context, ptr %17, i32 0, i32 2
  store i32 4, ptr %18, align 4, !tbaa !32
  br label %26

19:                                               ; preds = %1
  %20 = load ptr, ptr %3, align 8, !tbaa !4
  %21 = getelementptr inbounds nuw %struct.AVCodecContext, ptr %20, i32 0, i32 82
  %22 = load i32, ptr %21, align 4, !tbaa !31
  %23 = sdiv i32 %22, 118
  %24 = load ptr, ptr %4, align 8, !tbaa !29
  %25 = getelementptr inbounds nuw %struct.A64Context, ptr %24, i32 0, i32 2
  store i32 %23, ptr %25, align 4, !tbaa !32
  br label %26

26:                                               ; preds = %19, %16
  %27 = load ptr, ptr %3, align 8, !tbaa !4
  %28 = load ptr, ptr %4, align 8, !tbaa !29
  %29 = getelementptr inbounds nuw %struct.A64Context, ptr %28, i32 0, i32 2
  %30 = load i32, ptr %29, align 4, !tbaa !32
  call void (ptr, i32, ptr, ...) @av_log(ptr noundef %27, i32 noundef 32, ptr noundef @.str.5, i32 noundef %30)
  %31 = load ptr, ptr %4, align 8, !tbaa !29
  %32 = getelementptr inbounds nuw %struct.A64Context, ptr %31, i32 0, i32 4
  store i32 0, ptr %32, align 4, !tbaa !36
  %33 = load ptr, ptr %3, align 8, !tbaa !4
  %34 = getelementptr inbounds nuw %struct.AVCodecContext, ptr %33, i32 0, i32 3
  %35 = load ptr, ptr %34, align 8, !tbaa !37
  %36 = getelementptr inbounds nuw %struct.AVCodec, ptr %35, i32 0, i32 3
  %37 = load i32, ptr %36, align 4, !tbaa !38
  %38 = icmp eq i32 %37, 143
  %39 = zext i1 %38 to i32
  %40 = load ptr, ptr %4, align 8, !tbaa !29
  %41 = getelementptr inbounds nuw %struct.A64Context, ptr %40, i32 0, i32 3
  store i32 %39, ptr %41, align 8, !tbaa !43
  %42 = load ptr, ptr %4, align 8, !tbaa !29
  %43 = getelementptr inbounds nuw %struct.A64Context, ptr %42, i32 0, i32 3
  %44 = load i32, ptr %43, align 8, !tbaa !43
  %45 = add nsw i32 4, %44
  %46 = load ptr, ptr %4, align 8, !tbaa !29
  %47 = getelementptr inbounds nuw %struct.A64Context, ptr %46, i32 0, i32 11
  store i32 %45, ptr %47, align 8, !tbaa !44
  store i32 0, ptr %5, align 4, !tbaa !45
  br label %48

48:                                               ; preds = %94, %26
  %49 = load i32, ptr %5, align 4, !tbaa !45
  %50 = load ptr, ptr %4, align 8, !tbaa !29
  %51 = getelementptr inbounds nuw %struct.A64Context, ptr %50, i32 0, i32 11
  %52 = load i32, ptr %51, align 8, !tbaa !44
  %53 = icmp slt i32 %49, %52
  br i1 %53, label %54, label %97

54:                                               ; preds = %48
  %55 = load i32, ptr %5, align 4, !tbaa !45
  %56 = sext i32 %55 to i64
  %57 = getelementptr inbounds [5 x i8], ptr @mc_colors, i64 0, i64 %56
  %58 = load i8, ptr %57, align 1, !tbaa !46
  %59 = zext i8 %58 to i64
  %60 = getelementptr inbounds nuw [16 x [3 x i8]], ptr @a64_palette, i64 0, i64 %59
  %61 = getelementptr inbounds [3 x i8], ptr %60, i64 0, i64 0
  %62 = load i8, ptr %61, align 1, !tbaa !46
  %63 = zext i8 %62 to i32
  %64 = sitofp i32 %63 to double
  %65 = load i32, ptr %5, align 4, !tbaa !45
  %66 = sext i32 %65 to i64
  %67 = getelementptr inbounds [5 x i8], ptr @mc_colors, i64 0, i64 %66
  %68 = load i8, ptr %67, align 1, !tbaa !46
  %69 = zext i8 %68 to i64
  %70 = getelementptr inbounds nuw [16 x [3 x i8]], ptr @a64_palette, i64 0, i64 %69
  %71 = getelementptr inbounds [3 x i8], ptr %70, i64 0, i64 1
  %72 = load i8, ptr %71, align 1, !tbaa !46
  %73 = zext i8 %72 to i32
  %74 = sitofp i32 %73 to double
  %75 = fmul nsz double %74, 5.900000e-01
  %76 = call nsz double @llvm.fmuladd.f64(double %64, double 3.000000e-01, double %75)
  %77 = load i32, ptr %5, align 4, !tbaa !45
  %78 = sext i32 %77 to i64
  %79 = getelementptr inbounds [5 x i8], ptr @mc_colors, i64 0, i64 %78
  %80 = load i8, ptr %79, align 1, !tbaa !46
  %81 = zext i8 %80 to i64
  %82 = getelementptr inbounds nuw [16 x [3 x i8]], ptr @a64_palette, i64 0, i64 %81
  %83 = getelementptr inbounds [3 x i8], ptr %82, i64 0, i64 2
  %84 = load i8, ptr %83, align 1, !tbaa !46
  %85 = zext i8 %84 to i32
  %86 = sitofp i32 %85 to double
  %87 = call nsz double @llvm.fmuladd.f64(double %86, double 1.100000e-01, double %76)
  %88 = fptosi double %87 to i32
  %89 = load ptr, ptr %4, align 8, !tbaa !29
  %90 = getelementptr inbounds nuw %struct.A64Context, ptr %89, i32 0, i32 8
  %91 = load i32, ptr %5, align 4, !tbaa !45
  %92 = sext i32 %91 to i64
  %93 = getelementptr inbounds [5 x i32], ptr %90, i64 0, i64 %92
  store i32 %88, ptr %93, align 4, !tbaa !45
  br label %94

94:                                               ; preds = %54
  %95 = load i32, ptr %5, align 4, !tbaa !45
  %96 = add nsw i32 %95, 1
  store i32 %96, ptr %5, align 4, !tbaa !45
  br label %48, !llvm.loop !47

97:                                               ; preds = %48
  %98 = load ptr, ptr %4, align 8, !tbaa !29
  %99 = getelementptr inbounds nuw %struct.A64Context, ptr %98, i32 0, i32 2
  %100 = load i32, ptr %99, align 4, !tbaa !32
  %101 = sext i32 %100 to i64
  %102 = call noalias ptr @av_calloc(i64 noundef %101, i64 noundef 128000)
  %103 = load ptr, ptr %4, align 8, !tbaa !29
  %104 = getelementptr inbounds nuw %struct.A64Context, ptr %103, i32 0, i32 5
  store ptr %102, ptr %104, align 8, !tbaa !49
  %105 = icmp ne ptr %102, null
  br i1 %105, label %106, label %125

106:                                              ; preds = %97
  %107 = call noalias ptr @av_malloc(i64 noundef 32768)
  %108 = load ptr, ptr %4, align 8, !tbaa !29
  %109 = getelementptr inbounds nuw %struct.A64Context, ptr %108, i32 0, i32 7
  store ptr %107, ptr %109, align 8, !tbaa !50
  %110 = icmp ne ptr %107, null
  br i1 %110, label %111, label %125

111:                                              ; preds = %106
  %112 = load ptr, ptr %4, align 8, !tbaa !29
  %113 = getelementptr inbounds nuw %struct.A64Context, ptr %112, i32 0, i32 2
  %114 = load i32, ptr %113, align 4, !tbaa !32
  %115 = sext i32 %114 to i64
  %116 = call noalias ptr @av_calloc(i64 noundef %115, i64 noundef 4000)
  %117 = load ptr, ptr %4, align 8, !tbaa !29
  %118 = getelementptr inbounds nuw %struct.A64Context, ptr %117, i32 0, i32 6
  store ptr %116, ptr %118, align 8, !tbaa !51
  %119 = icmp ne ptr %116, null
  br i1 %119, label %120, label %125

120:                                              ; preds = %111
  %121 = call noalias ptr @av_mallocz(i64 noundef 256)
  %122 = load ptr, ptr %4, align 8, !tbaa !29
  %123 = getelementptr inbounds nuw %struct.A64Context, ptr %122, i32 0, i32 9
  store ptr %121, ptr %123, align 8, !tbaa !52
  %124 = icmp ne ptr %121, null
  br i1 %124, label %127, label %125

125:                                              ; preds = %120, %111, %106, %97
  %126 = load ptr, ptr %3, align 8, !tbaa !4
  call void (ptr, i32, ptr, ...) @av_log(ptr noundef %126, i32 noundef 16, ptr noundef @.str.6)
  store i32 -12, ptr %2, align 4
  store i32 1, ptr %6, align 4
  br label %160

127:                                              ; preds = %120
  %128 = call noalias ptr @av_mallocz(i64 noundef 96)
  %129 = load ptr, ptr %3, align 8, !tbaa !4
  %130 = getelementptr inbounds nuw %struct.AVCodecContext, ptr %129, i32 0, i32 12
  store ptr %128, ptr %130, align 8, !tbaa !53
  %131 = icmp ne ptr %128, null
  br i1 %131, label %134, label %132

132:                                              ; preds = %127
  %133 = load ptr, ptr %3, align 8, !tbaa !4
  call void (ptr, i32, ptr, ...) @av_log(ptr noundef %133, i32 noundef 16, ptr noundef @.str.7)
  store i32 -12, ptr %2, align 4
  store i32 1, ptr %6, align 4
  br label %160

134:                                              ; preds = %127
  %135 = load ptr, ptr %3, align 8, !tbaa !4
  %136 = getelementptr inbounds nuw %struct.AVCodecContext, ptr %135, i32 0, i32 13
  store i32 32, ptr %136, align 8, !tbaa !54
  %137 = load ptr, ptr %4, align 8, !tbaa !29
  %138 = getelementptr inbounds nuw %struct.A64Context, ptr %137, i32 0, i32 2
  %139 = load i32, ptr %138, align 4, !tbaa !32
  %140 = call i32 @av_bswap32(i32 noundef %139) #8
  %141 = load ptr, ptr %3, align 8, !tbaa !4
  %142 = getelementptr inbounds nuw %struct.AVCodecContext, ptr %141, i32 0, i32 12
  %143 = load ptr, ptr %142, align 8, !tbaa !53
  store i32 %140, ptr %143, align 1, !tbaa !46
  %144 = call i32 @av_bswap32(i32 noundef 1) #8
  %145 = load ptr, ptr %3, align 8, !tbaa !4
  %146 = getelementptr inbounds nuw %struct.AVCodecContext, ptr %145, i32 0, i32 12
  %147 = load ptr, ptr %146, align 8, !tbaa !53
  %148 = getelementptr inbounds i8, ptr %147, i64 16
  store i32 %144, ptr %148, align 1, !tbaa !46
  %149 = load ptr, ptr %3, align 8, !tbaa !4
  %150 = getelementptr inbounds nuw %struct.AVCodecContext, ptr %149, i32 0, i32 5
  %151 = load i32, ptr %150, align 4, !tbaa !55
  %152 = icmp ne i32 %151, 0
  br i1 %152, label %157, label %153

153:                                              ; preds = %134
  %154 = load i32, ptr @.str.8, align 1, !tbaa !46
  %155 = load ptr, ptr %3, align 8, !tbaa !4
  %156 = getelementptr inbounds nuw %struct.AVCodecContext, ptr %155, i32 0, i32 5
  store i32 %154, ptr %156, align 4, !tbaa !55
  br label %157

157:                                              ; preds = %153, %134
  %158 = load ptr, ptr %4, align 8, !tbaa !29
  %159 = getelementptr inbounds nuw %struct.A64Context, ptr %158, i32 0, i32 12
  store i64 -9223372036854775808, ptr %159, align 8, !tbaa !56
  store i32 0, ptr %2, align 4
  store i32 1, ptr %6, align 4
  br label %160

160:                                              ; preds = %157, %132, %125
  call void @llvm.lifetime.end.p0(i64 4, ptr %5) #7
  call void @llvm.lifetime.end.p0(i64 8, ptr %4) #7
  %161 = load i32, ptr %2, align 4
  ret i32 %161
}