; Function Attrs: cold nounwind optsize uwtable
define internal range(i32 -12, 1) i32 @a64multi_encode_init(ptr noundef %0) #0 {
.lr.ph:
  %1 = getelementptr inbounds nuw i8, ptr %0, i64 32
  %2 = load ptr, ptr %1, align 8, !tbaa !4
  %3 = getelementptr inbounds nuw i8, ptr %2, i64 8
  tail call void @av_lfg_init(ptr noundef nonnull %3, i32 noundef 1) #7
  %4 = getelementptr inbounds nuw i8, ptr %0, i64 420
  %5 = load i32, ptr %4, align 4, !tbaa !27
  %6 = icmp slt i32 %5, 1
  %7 = udiv i32 %5, 118
  %.sink = select i1 %6, i32 4, i32 %7
  %8 = getelementptr inbounds nuw i8, ptr %2, i64 268
  store i32 %.sink, ptr %8, align 4, !tbaa !28
  tail call void (ptr, i32, ptr, ...) @av_log(ptr noundef nonnull %0, i32 noundef 32, ptr noundef nonnull @.str.5, i32 noundef %.sink) #7
  %9 = getelementptr inbounds nuw i8, ptr %2, i64 276
  store i32 0, ptr %9, align 4, !tbaa !32
  %10 = getelementptr inbounds nuw i8, ptr %0, i64 16
  %11 = load ptr, ptr %10, align 8, !tbaa !33
  %12 = getelementptr inbounds nuw i8, ptr %11, i64 20
  %13 = load i32, ptr %12, align 4, !tbaa !34
  %14 = icmp eq i32 %13, 143
  %15 = zext i1 %14 to i32
  %16 = getelementptr inbounds nuw i8, ptr %2, i64 272
  store i32 %15, ptr %16, align 8, !tbaa !39
  %17 = select i1 %14, i32 5, i32 4
  %18 = getelementptr inbounds nuw i8, ptr %2, i64 344
  store i32 %17, ptr %18, align 8, !tbaa !40
  %19 = getelementptr inbounds nuw i8, ptr %2, i64 304
  br label %20

20:                                               ; preds = %.lr.ph, %20
  %indvars.iv = phi i64 [ 0, %.lr.ph ], [ %indvars.iv.next, %20 ]
  %21 = getelementptr inbounds nuw [5 x i8], ptr @mc_colors, i64 0, i64 %indvars.iv
  %22 = load i8, ptr %21, align 1, !tbaa !41
  %23 = zext i8 %22 to i64
  %24 = getelementptr inbounds nuw [16 x [3 x i8]], ptr @a64_palette, i64 0, i64 %23
  %25 = load i8, ptr %24, align 1, !tbaa !41
  %26 = uitofp i8 %25 to double
  %27 = getelementptr inbounds nuw i8, ptr %24, i64 1
  %28 = load i8, ptr %27, align 1, !tbaa !41
  %29 = uitofp i8 %28 to double
  %30 = fmul nsz double %29, 5.900000e-01
  %31 = tail call nsz double @llvm.fmuladd.f64(double %26, double 3.000000e-01, double %30)
  %32 = getelementptr inbounds nuw i8, ptr %24, i64 2
  %33 = load i8, ptr %32, align 1, !tbaa !41
  %34 = uitofp i8 %33 to double
  %35 = tail call nsz double @llvm.fmuladd.f64(double %34, double 1.100000e-01, double %31)
  %36 = fptosi double %35 to i32
  %37 = getelementptr inbounds nuw [5 x i32], ptr %19, i64 0, i64 %indvars.iv
  store i32 %36, ptr %37, align 4, !tbaa !42
  %indvars.iv.next = add nuw nsw i64 %indvars.iv, 1
  %38 = load i32, ptr %18, align 8, !tbaa !40
  %39 = sext i32 %38 to i64
  %40 = icmp slt i64 %indvars.iv.next, %39
  br i1 %40, label %20, label %._crit_edge, !llvm.loop !43

._crit_edge:                                      ; preds = %20
  %41 = load i32, ptr %8, align 4, !tbaa !28
  %42 = sext i32 %41 to i64
  %43 = tail call noalias ptr @av_calloc(i64 noundef %42, i64 noundef 128000) #7
  %44 = getelementptr inbounds nuw i8, ptr %2, i64 280
  store ptr %43, ptr %44, align 8, !tbaa !45
  %.not = icmp eq ptr %43, null
  br i1 %.not, label %56, label %45

45:                                               ; preds = %._crit_edge
  %46 = tail call noalias ptr @av_malloc(i64 noundef 32768) #7
  %47 = getelementptr inbounds nuw i8, ptr %2, i64 296
  store ptr %46, ptr %47, align 8, !tbaa !46
  %.not39 = icmp eq ptr %46, null
  br i1 %.not39, label %56, label %48

48:                                               ; preds = %45
  %49 = load i32, ptr %8, align 4, !tbaa !28
  %50 = sext i32 %49 to i64
  %51 = tail call noalias ptr @av_calloc(i64 noundef %50, i64 noundef 4000) #7
  %52 = getelementptr inbounds nuw i8, ptr %2, i64 288
  store ptr %51, ptr %52, align 8, !tbaa !47
  %.not40 = icmp eq ptr %51, null
  br i1 %.not40, label %56, label %53

53:                                               ; preds = %48
  %54 = tail call noalias ptr @av_mallocz(i64 noundef 256) #7
  %55 = getelementptr inbounds nuw i8, ptr %2, i64 328
  store ptr %54, ptr %55, align 8, !tbaa !48
  %.not41 = icmp eq ptr %54, null
  br i1 %.not41, label %56, label %57

56:                                               ; preds = %53, %48, %45, %._crit_edge
  tail call void (ptr, i32, ptr, ...) @av_log(ptr noundef nonnull %0, i32 noundef 16, ptr noundef nonnull @.str.6) #7
  br label %71

57:                                               ; preds = %53
  %58 = tail call noalias ptr @av_mallocz(i64 noundef 96) #7
  %59 = getelementptr inbounds nuw i8, ptr %0, i64 72
  store ptr %58, ptr %59, align 8, !tbaa !49
  %.not42 = icmp eq ptr %58, null
  br i1 %.not42, label %60, label %61

60:                                               ; preds = %57
  tail call void (ptr, i32, ptr, ...) @av_log(ptr noundef nonnull %0, i32 noundef 16, ptr noundef nonnull @.str.7) #7
  br label %71

61:                                               ; preds = %57
  %62 = getelementptr inbounds nuw i8, ptr %0, i64 80
  store i32 32, ptr %62, align 8, !tbaa !50
  %63 = load i32, ptr %8, align 4, !tbaa !28
  %64 = tail call i32 @llvm.bswap.i32(i32 %63)
  store i32 %64, ptr %58, align 1, !tbaa !41
  %65 = getelementptr inbounds nuw i8, ptr %58, i64 16
  store i32 16777216, ptr %65, align 1, !tbaa !41
  %66 = getelementptr inbounds nuw i8, ptr %0, i64 28
  %67 = load i32, ptr %66, align 4, !tbaa !51
  %.not43 = icmp eq i32 %67, 0
  br i1 %.not43, label %68, label %69

68:                                               ; preds = %61
  store i32 1832138337, ptr %66, align 4, !tbaa !51
  br label %69

69:                                               ; preds = %68, %61
  %70 = getelementptr inbounds nuw i8, ptr %2, i64 352
  store i64 -9223372036854775808, ptr %70, align 8, !tbaa !52
  br label %71

71:                                               ; preds = %69, %60, %56
  %.037 = phi i32 [ 0, %69 ], [ -12, %60 ], [ -12, %56 ]
  ret i32 %.037
}